(lp1
S' |-176 -706 66\r\n'
p2
aS'7 |-155 -683 63\r\n'
p3
aS'-300 -123 58 |-188 -542 7\r\n'
p4
aS'-316 -126 55 |-201 -504 -6\r\n'
p5
aS'-312 -144 22 |-167 -617 37\r\n'
p6
aS'-330 -105 39 |-176 -706 66\r\n'
p7
aS'7 |-155 -683 63\r\n'
p8
aS'-300 -123 58 |-188 -542 7\r\n'
p9
aS'-316 -126 55 |-201 -504 -6\r\n'
p10
aS'-312 -144 22 |-167 -617 37\r\n'
p11
aS'-330 -105 39 |-176 -706 66\r\n'
p12
aS'-335 -113 56 |-173 -611 107\r\n'
p13
aS'-316 -115 52 |-195 -639 41\r\n'
p14
aS'-309 -124 73 |-184 -532 28\r\n'
p15
aS'-320 -142 33 |-180 -620 38\r\n'
p16
aS'-312 -105 24 |-158 -614 44\r\n'
p17
aS'-305 -120 53 |-185 -615 76\r\n'
p18
aS'-331 -94 44 |-187 -593 55\r\n'
p19
aS'-302 -127 51 |-157 -591 14\r\n'
p20
aS'-322 -144 71 |-177 -585 57\r\n'
p21
aS'-324 -132 64 |-188 -644 57\r\n'
p22
aS'-314 -131 34 |-161 -620 64\r\n'
p23
aS'-318 -110 49 |-205 -604 12\r\n'
p24
aS'-301 -110 118 |-183 -604 49\r\n'
p25
aS'-335 -119 57 |-179 -579 18\r\n'
p26
aS'-341 -117 3 |-145 -577 50\r\n'
p27
aS'-319 -130 16 |-177 -619 68\r\n'
p28
aS'-327 -128 70 |-200 -641 47\r\n'
p29
aS'-331 -132 56 |-186 -639 35\r\n'
p30
aS'-310 -117 51 |-172 -582 42\r\n'
p31
aS'-321 -119 63 |-178 -575 34\r\n'
p32
aS'-329 -102 60 |-179 -593 24\r\n'
p33
aS'-317 -139 41 |-185 -605 51\r\n'
p34
aS'-335 -137 53 |-199 -620 83\r\n'
p35
aS'-316 -98 30 |-174 -624 55\r\n'
p36
aS'-300 -123 77 |-150 -592 47\r\n'
p37
aS'-319 -140 23 |-205 -590 19\r\n'
p38
aS'-329 -118 52 |-201 -608 50\r\n'
p39
aS'-301 -137 62 |-177 -611 38\r\n'
p40
aS'-306 -128 45 |-169 -616 84\r\n'
p41
aS'-317 -139 58 |-190 -593 56\r\n'
p42
aS'-330 -116 35 |-182 -599 50\r\n'
p43
aS'-335 -136 57 |-184 -597 45\r\n'
p44
aS'-321 -130 68 |-162 -579 46\r\n'
p45
aS'-312 -127 82 |-196 -606 38\r\n'
p46
aS'-312 -139 70 |-193 -604 42\r\n'
p47
aS'-334 -112 68 |-186 -602 31\r\n'
p48
aS'-328 -113 30 |-205 -628 72\r\n'
p49
aS'-301 -110 62 |-164 -609 41\r\n'
p50
aS'-333 -127 61 |-200 -600 65\r\n'
p51
aS'-320 -121 67 |-190 -584 33\r\n'
p52
aS'-315 -127 68 |-166 -613 63\r\n'
p53
aS'-337 -133 57 |-189 -587 29\r\n'
p54
aS'-295 -135 38 |-197 -595 60\r\n'
p55
aS'-310 -120 65 |-154 -656 55\r\n'
p56
aS'-327 -121 81 |-177 -599 46\r\n'
p57
aS'-327 -100 45 |-163 -598 29\r\n'
p58
aS'-319 -110 43 |-160 -606 28\r\n'
p59
aS'-344 -133 56 |-188 -587 16\r\n'
p60
aS'-318 -125 88 |-185 -603 39\r\n'
p61
aS'-330 -119 41 |-147 -620 58\r\n'
p62
aS'-314 -119 7 |-158 -619 52\r\n'
p63
aS'-346 -138 67 |-174 -585 40\r\n'
p64
aS'-329 -113 62 |-196 -597 57\r\n'
p65
aS'-307 -117 71 |-170 -598 48\r\n'
p66
aS'-334 -135 66 |-176 -605 24\r\n'
p67
aS'-320 -117 54 |-159 -613 59\r\n'
p68
aS'-332 -122 26 |-188 -578 52\r\n'
p69
aS'-325 -144 60 |-196 -601 29\r\n'
p70
aS'-307 -104 68 |-170 -596 47\r\n'
p71
aS'-320 -122 78 |-188 -645 72\r\n'
p72
aS'-333 -120 86 |-170 -585 51\r\n'
p73
aS'-302 -115 38 |-175 -597 51\r\n'
p74
aS'-323 -106 34 |-203 -551 49\r\n'
p75
aS'-318 -138 69 |-191 -585 26\r\n'
p76
aS'-320 -130 76 |-183 -633 56\r\n'
p77
aS'-314 -120 64 |-163 -648 68\r\n'
p78
aS'-329 -131 34 |-170 -619 65\r\n'
p79
aS'-333 -108 54 |-187 -575 27\r\n'
p80
aS'-326 -125 51 |-189 -547 25\r\n'
p81
aS'-308 -130 70 |-147 -585 44\r\n'
p82
aS'-317 -137 42 |-198 -622 86\r\n'
p83
aS'-313 -135 35 |-206 -590 60\r\n'
p84
aS'-324 -134 64 |-168 -574 1\r\n'
p85
aS'-310 -136 64 |-181 -583 42\r\n'
p86
aS'-302 -134 62 |-165 -587 41\r\n'
p87
aS'-307 -123 50 |-165 -614 61\r\n'
p88
aS'-338 -109 57 |-187 -619 70\r\n'
p89
aS'-338 -140 29 |-188 -604 52\r\n'
p90
aS'-313 -133 45 |-179 -589 22\r\n'
p91
aS'-321 -125 75 |-179 -587 25\r\n'
p92
aS'-329 -131 66 |-177 -647 73\r\n'
p93
aS'-336 -130 12 |-173 -642 50\r\n'
p94
aS'-330 -136 33 |-198 -564 74\r\n'
p95
aS'-344 -130 55 |-193 -577 21\r\n'
p96
aS'-320 -114 48 |-144 -566 30\r\n'
p97
aS'-318 -127 82 |-166 -612 56\r\n'
p98
aS'-319 -118 58 |-165 -628 67\r\n'
p99
aS'-312 -104 35 |-169 -642 41\r\n'
p100
aS'-305 -106 24 |-182 -615 15\r\n'
p101
aS'-333 -110 34 |-160 -573 35\r\n'
p102
aS'-315 -111 61 |-157 -620 52\r\n'
p103
aS'-301 -105 34 |-215 -635 46\r\n'
p104
aS'-315 -121 48 |-196 -581 37\r\n'
p105
aS'-326 -111 26 |-177 -600 41\r\n'
p106
aS'-326 -140 62 |-159 -626 43\r\n'
p107
aS'-308 -150 40 |-181 -580 41\r\n'
p108
aS'-335 -124 30 |-199 -603 49\r\n'
p109
aS'-331 -120 55 |-177 -600 63\r\n'
p110
aS'-317 -128 30 |-190 -597 37\r\n'
p111
aS'-303 -118 61 |-181 -625 47\r\n'
p112
aS'-322 -123 76 |-179 -599 36\r\n'
p113
aS'-308 -113 39 |-167 -608 43\r\n'
p114
aS'-326 -119 47 |-185 -605 51\r\n'
p115
aS'-312 -126 82 |-173 -631 67\r\n'
p116
aS'-306 -122 70 |-162 -625 64\r\n'
p117
aS'-320 -97 63 |-174 -571 30\r\n'
p118
aS'-331 -141 51 |-177 -622 38\r\n'
p119
aS'-345 -122 46 |-188 -596 37\r\n'
p120
aS'-311 -116 13 |-180 -603 70\r\n'
p121
aS'-321 -149 72 |-191 -618 68\r\n'
p122
aS'-302 -121 67 |-181 -609 47\r\n'
p123
aS'-305 -110 38 |-176 -564 32\r\n'
p124
aS'-329 -112 36 |-182 -635 36\r\n'
p125
aS'-322 -127 80 |-174 -601 43\r\n'
p126
aS'-333 -127 19 |-160 -611 49\r\n'
p127
aS'-323 -125 69 |-181 -626 45\r\n'
p128
aS'-320 -132 28 |-168 -628 41\r\n'
p129
aS'-309 -112 68 |-184 -590 28\r\n'
p130
aS'-310 -133 47 |-191 -578 50\r\n'
p131
aS'-317 -127 66 |-183 -601 59\r\n'
p132
aS'-320 -126 45 |-180 -608 62\r\n'
p133
aS'-309 -126 50 |-201 -576 40\r\n'
p134
aS'-315 -118 26 |-171 -612 65\r\n'
p135
aS'-309 -114 21 |-200 -587 64\r\n'
p136
aS'-299 -126 46 |-172 -600 6\r\n'
p137
aS'-320 -137 57 |-188 -608 51\r\n'
p138
aS'-316 -135 40 |-179 -625 54\r\n'
p139
aS'-288 -132 56 |-178 -615 66\r\n'
p140
aS'-329 -123 55 |-191 -613 45\r\n'
p141
aS'-359 -135 43 |-153 -616 35\r\n'
p142
aS'-319 -120 50 |-162 -599 45\r\n'
p143
aS'-332 -111 42 |-197 -585 62\r\n'
p144
aS'-345 -121 63 |-181 -599 38\r\n'
p145
aS'-317 -129 46 |-206 -595 40\r\n'
p146
aS'-322 -114 57 |-155 -589 25\r\n'
p147
aS'-314 -138 59 |-175 -606 39\r\n'
p148
aS'-348 -122 46 |-184 -618 68\r\n'
p149
aS'-318 -131 37 |-182 -609 30\r\n'
p150
aS'-304 -134 59 |-169 -604 47\r\n'
p151
aS'-331 -102 23 |-182 -576 |39 |-192 -587 40\r\n'
p152
aS' |-184 -589 57\r\n'
p153
aS'-332 -122 32 |-191 -605 58\r\n'
p154
aS'-310 -121 74 |-182 -593 41\r\n'
p155
aS'-331 -131 57 |-205 -606 63\r\n'
p156
aS'-305 -123 39 |-192 -587 40\r\n'
p157
aS'-319 -114 65 |-161 -601 52\r\n'
p158
aS'-302 -130 82 |-133 -619 52\r\n'
p159
aS'-313 -109 47 |-207 -611 40\r\n'
p160
aS'-321 -117 54 |-174 -585 29\r\n'
p161
aS'-304 -123 11 |-192 -617 48\r\n'
p162
aS'-338 -101 57 |-205 -612 50\r\n'
p163
aS'-323 -111 32 |-186 -608 83\r\n'
p164
aS'-340 -148 85 |-160 -609 38\r\n'
p165
aS'-319 -137 35 |-180 -632 30\r\n'
p166
aS'-317 -120 57 |-176 -613 39\r\n'
p167
aS'-316 -147 65 |-178 -585 41\r\n'
p168
aS'-309 -110 78 |-175 -599 29\r\n'
p169
aS'-296 -106 40 |-167 -609 68\r\n'
p170
aS'-335 -119 69 |-156 -589 51\r\n'
p171
aS'-312 -115 66 |-175 -585 38\r\n'
p172
aS'-308 -110 82 |-172 -624 61\r\n'
p173
aS'-320 -104 57 |-176 -602 70\r\n'
p174
aS'-321 -146 52 |-179 -583 44\r\n'
p175
aS'-326 -114 54 |-164 -600 52\r\n'
p176
aS'-297 -136 99 |-179 -611 26\r\n'
p177
aS'-329 -146 72 |-171 -618 45\r\n'
p178
aS'-328 -137 54 |-174 -623 71\r\n'
p179
aS'-341 -135 36 |-189 -632 60\r\n'
p180
aS'-341 -137 39 |-169 -587 63\r\n'
p181
aS'-290 -129 66 |-189 -595 28\r\n'
p182
aS'-340 -113 82 |-161 -620 17\r\n'
p183
aS'-321 -146 83 |-174 -594 48\r\n'
p184
aS'-332 -106 22 |-146 -642 69\r\n'
p185
aS'-319 -117 15 |-196 -605 57\r\n'
p186
aS'-310 -108 89 |-172 -628 52\r\n'
p187
aS'-303 -116 75 |-143 -590 35\r\n'
p188
aS'-315 -135 73 |-157 -595 62\r\n'
p189
aS'-326 -142 48 |-184 -569 66\r\n'
p190
aS'-310 -115 42 |-162 -617 44\r\n'
p191
aS'-336 -112 64 |-193 -611 51\r\n'
p192
aS'-333 -121 76 |-165 -610 31\r\n'
p193
aS'-303 -132 61 |-147 -629 47\r\n'
p194
aS'-327 -110 44 |-184 -586 60\r\n'
p195
aS'-328 -139 30 |-213 -604 44\r\n'
p196
aS'-293 -116 34 |-164 -605 41\r\n'
p197
aS'-331 -125 63 |-160 -593 46\r\n'
p198
aS'-330 -108 68 |-210 -595 38\r\n'
p199
aS'-338 -122 37 |-166 -580 47\r\n'
p200
aS'-321 -102 25 |-171 -590 40\r\n'
p201
aS'-322 -138 66 |-195 -590 38\r\n'
p202
aS'-297 -128 34 |-165 -641 43\r\n'
p203
aS'-293 -129 47 |-186 -592 28\r\n'
p204
aS'-322 -108 73 |-144 -646 44\r\n'
p205
aS'-312 -153 50 |-205 -572 49\r\n'
p206
aS'-317 -109 33 |-171 -615 54\r\n'
p207
aS'-305 -150 65 |-152 -596 53\r\n'
p208
aS'-319 -117 96 |-194 -616 45\r\n'
p209
aS'-295 -157 85 |-195 -563 49\r\n'
p210
aS'-334 -111 34 |-169 -594 32\r\n'
p211
aS'-316 -81 3 |-166 -589 52\r\n'
p212
aS'-322 -91 70 |-183 -625 17\r\n'
p213
aS'-320 -104 38 |-165 -630 65\r\n'
p214
aS'-315 -115 87 |-173 -595 55\r\n'
p215
aS'-338 -102 29 |-181 -607 54\r\n'
p216
aS'-309 -130 62 |-173 -625 20\r\n'
p217
aS'-317 -124 85 |-165 -569 57\r\n'
p218
aS'-320 -108 65 |-171 -594 34\r\n'
p219
aS'-334 -115 29 |-173 -622 89\r\n'
p220
aS'-316 -118 65 |-197 -628 76\r\n'
p221
aS'-332 -143 83 |-138 -603 36\r\n'
p222
aS'-321 -119 48 |-199 -589 60\r\n'
p223
aS'-331 -120 42 |-206 -578 32\r\n'
p224
aS'-313 -121 69 |-172 -611 40\r\n'
p225
aS'-314 -115 30 |-166 -593 46\r\n'
p226
aS'-313 -122 19 |-216 -619 59\r\n'
p227
aS'-347 -137 60 |-160 -624 34\r\n'
p228
aS'-313 -100 3 |-156 -594 53\r\n'
p229
aS'-315 -139 61 |-231 -568 24\r\n'
p230
aS'-310 -134 83 |-176 -601 62\r\n'
p231
aS'-318 -127 32 |-168 -589 45\r\n'
p232
aS'-336 -144 70 |-162 -603 65\r\n'
p233
aS'-326 -142 31 |-175 -612 55\r\n'
p234
aS'-318 -145 75 |-184 -607 36\r\n'
p235
aS'-302 -123 18 |-194 -583 29\r\n'
p236
aS'-307 -102 42 |-141 -634 70\r\n'
p237
aS'-302 -137 68 |-205 -615 48\r\n'
p238
aS'-302 -141 49 |-186 -602 54\r\n'
p239
aS'-332 -120 61 |-162 -603 15\r\n'
p240
aS'-330 -134 39 |-205 -626 50\r\n'
p241
aS'-313 -116 45 |-206 -595 50\r\n'
p242
aS'-305 -131 74 |-141 -624 79\r\n'
p243
aS'-333 -102 49 |-168 -616 55\r\n'
p244
aS'-306 -134 50 |-160 -583 43\r\n'
p245
aS'-324 -93 41 |-194 -580 51\r\n'
p246
aS'-328 -137 57 |-187 -611 57\r\n'
p247
aS'-300 -118 56 |-175 -617 57\r\n'
p248
aS'-335 -119 51 |-176 -621 60\r\n'
p249
aS'-337 -151 84 |-185 -632 50\r\n'
p250
aS'-323 -117 42 |-185 -592 23\r\n'
p251
aS'-298 -141 92 |-154 -626 27\r\n'
p252
aS'-330 -111 56 |-193 -601 59\r\n'
p253
aS'-324 -121 62 |-163 -611 37\r\n'
p254
aS'-311 -108 23 |-152 -597 34\r\n'
p255
aS'-310 -125 53 |-187 -601 41\r\n'
p256
aS'-326 -123 84 |-163 -613 56\r\n'
p257
aS'-326 -126 53 |-170 -580 35\r\n'
p258
aS'-325 -105 50 |-173 -625 58\r\n'
p259
aS'-319 -149 44 |-195 -581 25\r\n'
p260
aS'-313 -119 47 |-170 -616 39\r\n'
p261
aS'-347 -151 64 |-191 -579 59\r\n'
p262
aS'-333 -128 76 |-186 -626 41\r\n'
p263
aS'-318 -130 56 |-173 -631 32\r\n'
p264
aS'-292 -113 16 |-184 -614 39\r\n'
p265
aS'-337 -133 56 |-160 -572 48\r\n'
p266
aS'-302 -104 19 |-169 -615 26\r\n'
p267
aS'-342 -117 43 |-164 -612 30\r\n'
p268
aS'-317 -118 58 |-198 -577 46\r\n'
p269
aS'-338 -123 69 |-186 -602 38\r\n'
p270
aS'-303 -118 55 |-180 -597 42\r\n'
p271
aS'-307 -121 52 |-179 -601 61\r\n'
p272
aS'-318 -124 52 |-195 -591 46\r\n'
p273
aS'-325 -102 77 |-170 -589 54\r\n'
p274
aS'-310 -138 39 |-170 -606 52\r\n'
p275
aS'-316 -129 39 |-197 -606 60\r\n'
p276
aS'-343 -111 69 |-171 -602 52\r\n'
p277
aS'-324 -136 54 |-174 -601 40\r\n'
p278
aS'-314 -109 57 |-201 -576 38\r\n'
p279
aS'-311 -137 74 |-201 -636 50\r\n'
p280
aS'-313 -129 64 |-168 -601 48\r\n'
p281
aS'-310 -124 46 |-162 -609 52\r\n'
p282
aS'-326 -109 20 |-173 -606 41\r\n'
p283
aS'-324 -114 17 |-149 -627 43\r\n'
p284
aS'-315 -113 60 |-192 -597 37\r\n'
p285
aS'-320 -124 40 |-201 -619 30\r\n'
p286
aS'-330 -101 37 |-189 -611 53\r\n'
p287
aS'-323 -114 76 |-185 -597 50\r\n'
p288
aS'-333 -135 54 |-190 -611 49\r\n'
p289
aS'-313 -113 53 |-175 -624 73\r\n'
p290
aS'-307 -127 49 |-184 -613 37\r\n'
p291
aS'-327 -141 63 |-171 -606 48\r\n'
p292
aS'-329 -128 20 |-199 -608 56\r\n'
p293
aS'-336 -112 69 |-168 -592 40\r\n'
p294
aS'-308 -123 55 |-184 -599 69\r\n'
p295
aS'-326 -119 36 |-188 -600 42\r\n'
p296
aS'-316 -120 36 |-166 -594 48\r\n'
p297
aS'-316 -117 48 |-166 -602 32\r\n'
p298
aS'-333 -108 61 |-181 -603 32\r\n'
p299
aS'-318 -110 53 |-194 -583 52\r\n'
p300
aS'-333 -110 53 |-173 -587 48\r\n'
p301
aS'-321 -126 45 |-154 -591 39\r\n'
p302
aS'-330 -125 26 |-201 -604 56\r\n'
p303
aS'-326 -108 81 |-170 -590 41\r\n'
p304
aS'-320 -123 88 |-163 -570 18\r\n'
p305
aS'-327 -121 58 |-179 -607 54\r\n'
p306
aS'-316 -124 70 |-209 -603 29\r\n'
p307
aS'-315 -128 58 |-187 -607 49\r\n'
p308
aS'-325 -106 55 |-163 -595 14\r\n'
p309
aS'-328 -124 21 |-151 -606 59\r\n'
p310
aS'-309 -137 40 |-208 -605 24\r\n'
p311
aS'-308 -139 50 |-173 -618 51\r\n'
p312
aS'-326 -140 36 |-190 -596 21\r\n'
p313
aS'-310 -114 73 |-184 -591 53\r\n'
p314
aS'-343 -116 87 |-168 -595 17\r\n'
p315
aS'-321 -120 35 |-181 -584 58\r\n'
p316
aS'-319 -131 38 |-174 -604 51\r\n'
p317
aS'-330 -117 79 |-195 -597 24\r\n'
p318
aS'-343 -127 35 |-188 -597 77\r\n'
p319
aS'-303 -110 28 |-180 -620 43\r\n'
p320
aS'-325 -115 15 |-170 -625 49\r\n'
p321
aS'-330 -117 68 |-173 -602 43\r\n'
p322
aS'-340 -110 72 |-178 -616 56\r\n'
p323
aS'-306 -109 43 |-176 -612 49\r\n'
p324
aS'-339 -133 67 |-174 -587 53\r\n'
p325
aS'-291 -108 67 |-191 -617 41\r\n'
p326
aS'-313 -111 37 |-180 -607 32\r\n'
p327
aS'-324 -129 7 |-174 -610 26\r\n'
p328
aS'-306 -100 68 |-202 -603 49\r\n'
p329
aS'-304 -133 54 |-183 -627 50\r\n'
p330
aS'-331 -131 -5 |-175 -622 56\r\n'
p331
aS'-299 -116 38 |-194 -628 57\r\n'
p332
aS'-324 -136 54 |-186 -616 34\r\n'
p333
aS'-343 -148 49 |-163 -618 62\r\n'
p334
aS'-302 -131 56 |-190 -591 43\r\n'
p335
aS'-332 -127 55 |-183 -594 55\r\n'
p336
aS'-301 -116 53 |-160 -607 62\r\n'
p337
aS'-303 -128 57 |-184 -603 53\r\n'
p338
aS'-320 -113 75 |-208 -591 28\r\n'
p339
aS'-337 -125 53 |-171 -627 39\r\n'
p340
aS'-324 -115 19 |-167 -617 27\r\n'
p341
aS'-323 -116 50 |-168 -596 47\r\n'
p342
aS'-320 -119 28 |-193 -617 69\r\n'
p343
aS'-318 -130 64 |-171 -571 35\r\n'
p344
aS'-323 -119 43 |-187 -625 32\r\n'
p345
aS'-343 -115 36 |-167 -602 31\r\n'
p346
aS'-331 -137 57 |-161 -650 70\r\n'
p347
aS'-312 -101 62 |-185 -577 31\r\n'
p348
aS'-332 -133 86 |-161 -588 34\r\n'
p349
aS'-327 -121 28 |-157 -588 45\r\n'
p350
aS'-312 -123 21 |-168 -601 50\r\n'
p351
aS'-321 -127 62 |-184 -618 52\r\n'
p352
aS'-339 -125 75 |-164 -615 76\r\n'
p353
aS'-326 -136 76 |-157 -606 32\r\n'
p354
aS'-325 -117 53 |-188 -572 64\r\n'
p355
aS'-326 -148 60 |-190 -622 60\r\n'
p356
aS'-318 -115 53 |-188 -625 23\r\n'
p357
aS'-343 -135 49 |-172 -593 25\r\n'
p358
aS'-331 -125 45 |-191 -596 50\r\n'
p359
aS'-332 -122 68 |-169 -612 19\r\n'
p360
aS'-323 -124 19 |-174 -575 33\r\n'
p361
aS'-298 -108 77 |-186 -612 89\r\n'
p362
aS'-299 -121 51 |-193 -632 63\r\n'
p363
aS'-322 -115 69 |-167 -611 32\r\n'
p364
aS'-318 -127 44 |-200 -598 32\r\n'
p365
aS'-323 -139 43 |-188 -579 40\r\n'
p366
aS'-321 -114 55 |-170 -609 51\r\n'
p367
aS'-327 -119 56 |-178 -611 33\r\n'
p368
aS'-300 -108 43 |-205 -602 54\r\n'
p369
aS'-337 -119 54 |-180 -619 56\r\n'
p370
aS'-302 -129 54 |-181 -615 51\r\n'
p371
aS'-318 -125 41 |-180 -593 52\r\n'
p372
aS'-306 -100 53 |-167 -618 54\r\n'
p373
aS'-330 -127 41 |-200 -599 50\r\n'
p374
aS'-307 -140 93 |-162 -606 42\r\n'
p375
aS'-303 -122 34 |-174 -606 47\r\n'
p376
aS'-330 -109 35 |-171 -621 32\r\n'
p377
aS'-336 -129 43 |-179 -593 46\r\n'
p378
aS'-313 -109 75 |-170 -605 46\r\n'
p379
aS'-315 -136 48 |-163 -621 55\r\n'
p380
aS'-332 -110 59 |-175 -597 15\r\n'
p381
aS'-310 -133 70 |-176 -602 68\r\n'
p382
aS'-305 -107 50 |-185 -594 40\r\n'
p383
aS'-315 -114 54 |-159 -611 58\r\n'
p384
aS'-324 -114 45 |-183 -569 32\r\n'
p385
aS'-311 -123 29 |-178 -640 48\r\n'
p386
aS'-323 -113 57 |-183 -594 42\r\n'
p387
aS'-320 -116 46 |-169 -587 31\r\n'
p388
aS'-330 -115 19 |-181 -596 65\r\n'
p389
aS'-319 -114 52 |-174 -609 32\r\n'
p390
aS'-311 -132 84 |-159 -596 45\r\n'
p391
aS'-318 -115 19 |-165 -588 41\r\n'
p392
aS'-325 -121 25 |-197 -618 67\r\n'
p393
aS'-338 -120 42 |-179 -605 40\r\n'
p394
aS'-293 -131 47 |-191 -608 56\r\n'
p395
aS'-315 -143 58 |-175 -582 27\r\n'
p396
aS'-325 -131 69 |-180 -602 46\r\n'
p397
aS'-321 -128 63 |-166 -600 27\r\n'
p398
aS'-304 -115 41 |-167 -581 64\r\n'
p399
aS'-325 -124 37 |-171 -603 51\r\n'
p400
aS'-327 -131 65 |-170 -576 38\r\n'
p401
aS'-330 -112 54 |-180 -605 56\r\n'
p402
aS'-330 -118 59 |-164 -614 52\r\n'
p403
aS'-311 -129 33 |-190 -604 74\r\n'
p404
aS'-313 -110 34 |-184 -579 57\r\n'
p405
aS'-329 -111 53 |-189 -586 47\r\n'
p406
aS'-300 -142 29 |-171 -599 38\r\n'
p407
aS'-313 -120 45 |-161 -625 40\r\n'
p408
aS'-301 -129 37 |-181 -615 56\r\n'
p409
aS'-330 -153 57 |-176 -588 54\r\n'
p410
aS'-310 -128 44 |-171 -614 41\r\n'
p411
aS'-319 -127 26 |-148 -585 47\r\n'
p412
aS'-337 -123 42 |-172 -618 45\r\n'
p413
aS'-322 -123 10 |-178 -609 56\r\n'
p414
aS'-296 -107 49 |-164 -603 60\r\n'
p415
aS'-321 -110 51 |-187 -602 49\r\n'
p416
aS'-341 -129 53 |-186 -589 32\r\n'
p417
aS'-291 -131 50 |-181 -606 32\r\n'
p418
aS'-325 -120 45 |-171 -610 61\r\n'
p419
aS'-306 -117 77 |-156 -581 49\r\n'
p420
aS'-334 -124 47 |-199 -600 39\r\n'
p421
aS'-312 -103 22 |-164 -591 30\r\n'
p422
aS'-320 -127 45 |-179 -625 35\r\n'
p423
aS'-333 -110 64 |-174 -595 50\r\n'
p424
aS'-320 -110 6 |-179 -579 19\r\n'
p425
aS'-348 -101 46 |-175 -574 63\r\n'
p426
aS'-333 -113 28 |-187 -610 63\r\n'
p427
aS'-331 -113 49 |-153 -628 69\r\n'
p428
aS'-321 -129 46 |-169 -611 67\r\n'
p429
aS'-333 -123 52 |-170 -608 61\r\n'
p430
aS'-314 -129 51 |-166 -596 33\r\n'
p431
aS'-336 -124 57 |-197 -615 51\r\n'
p432
aS'-340 -127 91 |-185 -597 65\r\n'
p433
aS'-320 -125 42 |-170 -600 50\r\n'
p434
aS'-339 -122 37 |-164 -594 14\r\n'
p435
aS'-341 -141 49 |-191 -592 33\r\n'
p436
aS'-313 -119 21 |-197 -595 54\r\n'
p437
aS'-338 -140 52 |-197 -593 43\r\n'
p438
aS'-321 -124 47 |-186 -609 51\r\n'
p439
aS'-307 -115 64 |-186 -623 44\r\n'
p440
aS'-320 -130 57 |-166 -590 44\r\n'
p441
aS'-326 -123 65 |-178 -601 74\r\n'
p442
aS'-298 -108 40 |-195 -617 40\r\n'
p443
aS'-326 -120 44 |-175 -587 37\r\n'
p444
aS'-332 -128 62 |-187 -604 51\r\n'
p445
aS'-318 -131 50 |-168 -599 63\r\n'
p446
aS'-314 -117 57 |-215 -605 30\r\n'
p447
aS'-311 -115 64 |-168 -590 47\r\n'
p448
aS'-325 -115 82 |-171 -613 35\r\n'
p449
aS'-320 -127 30 |-186 -628 38\r\n'
p450
aS'-314 -128 40 |-176 -604 60\r\n'
p451
aS'-326 -101 71 |-187 -581 50\r\n'
p452
aS'-315 -126 42 |-184 -598 68\r\n'
p453
aS'-329 -114 52 |-196 -611 53\r\n'
p454
aS'-335 -130 62 |-158 -610 58\r\n'
p455
aS'-319 -123 44 |-173 -605 62\r\n'
p456
aS'-314 -143 56 |-170 -629 28\r\n'
p457
aS'-316 -119 37 |-161 -618 64\r\n'
p458
aS'-318 -135 57 |-190 -588 28\r\n'
p459
aS'-345 -129 52 |-160 -604 31\r\n'
p460
aS'-299 -121 40 |-193 -588 57\r\n'
p461
aS'-336 -119 30 |-168 -596 36\r\n'
p462
aS'-333 -118 47 |-174 -612 52\r\n'
p463
aS'-311 -127 39 |-192 -603 25\r\n'
p464
aS'-344 -128 70 |-170 -619 55\r\n'
p465
aS'-314 -112 40 |-190 -590 23\r\n'
p466
aS'-324 -135 70 |-185 -597 47\r\n'
p467
aS'-332 -135 35 |-191 -574 54\r\n'
p468
aS'-306 -142 62 |-178 -611 47\r\n'
p469
aS'-308 -144 38 |-189 -611 39\r\n'
p470
aS'-331 -102 20 |-189 -575 63\r\n'
p471
aS'-325 -110 54 |-169 -573 55\r\n'
p472
aS'-311 -123 75 |-166 -613 46\r\n'
p473
aS'-331 -128 67 |-189 -603 67\r\n'
p474
aS'-306 -121 36 |-173 -576 30\r\n'
p475
aS'-311 -136 39 |-188 -610 30\r\n'
p476
aS'-323 -109 58 |-162 -586 31\r\n'
p477
aS'-328 -122 47 |-189 -588 25\r\n'
p478
aS'-316 -119 16 |-183 -596 45\r\n'
p479
aS'-323 -131 44 |-184 -578 31\r\n'
p480
aS'-310 -140 60 |-183 -604 50\r\n'
p481
aS'-319 -109 71 |-151 -600 37\r\n'
p482
aS'-329 -106 61 |-181 -589 50\r\n'
p483
aS'-323 -129 53 |-196 -620 50\r\n'
p484
aS'-335 -124 37 |-157 -576 34\r\n'
p485
aS'-325 -124 38 |-155 -582 24\r\n'
p486
aS'-328 -120 43 |-194 -603 31\r\n'
p487
aS'-330 -109 77 |-154 -631 60\r\n'
p488
aS'-318 -136 51 |-187 -615 54\r\n'
p489
aS'-314 -111 18 |-197 -593 56\r\n'
p490
aS'-335 -146 67 |-145 -620 71\r\n'
p491
aS'-303 -110 74 |-175 -575 58\r\n'
p492
aS'-318 -149 46 |-175 -601 40\r\n'
p493
aS'-312 -139 16 |-188 -616 38\r\n'
p494
aS'-312 -115 55 |-175 -592 61\r\n'
p495
aS'-338 -132 87 |-209 -591 44\r\n'
p496
aS'-336 -131 79 |-161 -591 54\r\n'
p497
aS'-285 -140 65 |-188 -613 34\r\n'
p498
aS'-329 -118 51 |-183 -619 49\r\n'
p499
aS'-309 -115 42 |-183 -600 17\r\n'
p500
aS'-349 -112 38 |-175 -634 55\r\n'
p501
aS'-334 -118 79 |-171 -606 74\r\n'
p502
aS'-356 -114 62 |-189 -601 19\r\n'
p503
aS'-317 -133 89 |-164 -617 35\r\n'
p504
aS'-289 -116 74 |-179 -623 21\r\n'
p505
aS'-370 -143 68 |-165 -637 65\r\n'
p506
aS'-353 -140 35 |-181 -592 37\r\n'
p507
aS'-318 -124 62 |-205 -575 55\r\n'
p508
aS'-321 -134 41 |-116 -585 47\r\n'
p509
aS'-363 -159 55 |-160 -609 34\r\n'
p510
aS'-309 -129 50 |-204 -586 48\r\n'
p511
aS'-332 -117 66 |-160 -651 74\r\n'
p512
aS'-328 -135 67 |-157 -594 77\r\n'
p513
aS'-311 -133 37 |-229 -587 24\r\n'
p514
aS'-324 -98 25 |-153 -584 50\r\n'
p515
aS'-335 -127 31 |-176 -606 19\r\n'
p516
aS'-317 -99 28 |-167 -599 20\r\n'
p517
aS'-317 -144 42 |-192 -602 78\r\n'
p518
aS'-342 -121 64 |-192 -611 39\r\n'
p519
aS'-318 -156 52 |-157 -608 39\r\n'
p520
aS'-317 -137 61 |-132 -632 76\r\n'
p521
aS'-324 -116 27 |-193 -602 65\r\n'
p522
aS'-329 -134 78 |-189 -573 47\r\n'
p523
aS'-318 -103 65 |-135 -619 35\r\n'
p524
aS'-325 -107 39 |-212 -623 64\r\n'
p525
aS'-327 -117 43 |-183 -589 33\r\n'
p526
aS'-321 -122 13 |-146 -617 52\r\n'
p527
aS'-328 -117 50 |-172 -594 29\r\n'
p528
aS'-310 -122 51 |-200 -586 51\r\n'
p529
aS'-324 -111 77 |-170 -640 40\r\n'
p530
aS'-309 -125 64 |-180 -608 62\r\n'
p531
aS'-328 -138 32 |-181 -613 40\r\n'
p532
aS'-322 -125 45 |-188 -610 49\r\n'
p533
aS'-321 -124 69 |-159 -613 40\r\n'
p534
aS'-325 -116 54 |-158 -584 34\r\n'
p535
aS'-321 -129 43 |-176 -602 55\r\n'
p536
aS'-308 -121 78 |-194 -617 73\r\n'
p537
aS'-304 -118 48 |-176 -588 26\r\n'
p538
aS'-331 -124 60 |-172 -599 59\r\n'
p539
aS'-329 -123 75 |-213 -611 62\r\n'
p540
aS'-321 -137 24 |-179 -605 35\r\n'
p541
aS'-319 -117 50 |-182 -609 66\r\n'
p542
aS'-321 -138 59 |-197 -604 57\r\n'
p543
aS'-324 -123 80 |-171 -576 26\r\n'
p544
aS'-315 -107 43 |-173 -586 64\r\n'
p545
aS'-339 -132 51 |-162 -631 58\r\n'
p546
aS'-310 -134 50 |-197 -577 58\r\n'
p547
aS'-322 -133 94 |-181 -610 42\r\n'
p548
aS'-311 -131 53 |-168 -613 43\r\n'
p549
aS'-347 -128 56 |-198 -582 14\r\n'
p550
aS'-325 -145 67 |-179 -614 40\r\n'
p551
aS'-337 -107 43 |-155 -593 41\r\n'
p552
aS'-333 -105 42 |-179 -582 50\r\n'
p553
aS'-324 -115 37 |-193 -603 49\r\n'
p554
aS'-331 -138 63 |-159 -617 57\r\n'
p555
aS'-310 -125 31 |-182 -610 33\r\n'
p556
aS'-331 -130 77 |-189 -614 33\r\n'
p557
aS'-320 -133 63 |-164 -597 58\r\n'
p558
aS'-325 -129 60 |-162 -588 38\r\n'
p559
aS'-305 -110 71 |-211 -642 47\r\n'
p560
aS'-319 -112 60 |-165 -597 53\r\n'
p561
aS'-298 -148 71 |-223 -634 35\r\n'
p562
aS'-327 -146 49 |-171 -621 44\r\n'
p563
aS'-329 -138 87 |-180 -590 52\r\n'
p564
aS'-338 -127 78 |-161 -604 46\r\n'
p565
aS'-314 -109 4 |-197 -592 35\r\n'
p566
aS'-353 -111 67 |-150 -627 29\r\n'
p567
aS'-321 -98 64 |-202 -615 80\r\n'
p568
aS'-323 -120 26 |-203 -587 37\r\n'
p569
aS'-322 -120 62 |-154 -606 42\r\n'
p570
aS'-323 -113 64 |-165 -595 33\r\n'
p571
aS'-323 -125 49 |-193 -588 35\r\n'
p572
aS'-331 -121 53 |-167 -598 52\r\n'
p573
aS'-307 -135 38 |-188 -590 55\r\n'
p574
aS'-344 -125 50 |-180 -604 47\r\n'
p575
aS'-319 -130 67 |-181 -634 41\r\n'
p576
aS'-329 -130 67 |-174 -631 53\r\n'
p577
aS'-333 -110 53 |-164 -626 35\r\n'
p578
aS'-314 -120 36 |-190 -616 65\r\n'
p579
aS'-319 -140 20 |-191 -586 29\r\n'
p580
aS'-319 -132 51 |-177 -606 17\r\n'
p581
aS'-303 -100 61 |-156 -599 51\r\n'
p582
aS'-350 -114 38 |-176 -622 32\r\n'
p583
aS'-323 -138 54 |-175 -593 44\r\n'
p584
aS'-322 -129 35 |-196 -594 65\r\n'
p585
aS'-320 -113 55 |-184 -626 52\r\n'
p586
aS'-290 -116 85 |-181 -588 60\r\n'
p587
aS'-310 -137 83 |-167 -609 45\r\n'
p588
aS'-316 -115 55 |-180 -594 39\r\n'
p589
aS'-317 -138 63 |-196 -609 29\r\n'
p590
aS'-322 -137 60 |-172 -587 43\r\n'
p591
aS'-306 -122 53 |-193 -595 62\r\n'
p592
aS'-316 -127 79 |-177 -635 31\r\n'
p593
aS'-313 -131 39 |-178 -615 36\r\n'
p594
aS'-318 -122 54 |-193 -594 58\r\n'
p595
aS'-310 -109 33 |-203 -594 67\r\n'
p596
aS'-312 -113 51 |-190 -614 38\r\n'
p597
aS'-333 -117 37 |-166 -603 39\r\n'
p598
aS'-313 -110 45 |-174 -607 33\r\n'
p599
aS'-320 -119 46 |-171 -586 66\r\n'
p600
aS'-321 -120 81 |-184 -590 48\r\n'
p601
aS'-322 -127 45 |-198 -608 44\r\n'
p602
aS'-323 -136 73 |-184 -619 48\r\n'
p603
aS'-312 -132 55 |-159 -627 50\r\n'
p604
aS'-345 -121 31 |-185 -588 63\r\n'
p605
aS'-321 -104 78 |-176 -592 43\r\n'
p606
aS'-306 -119 35 |-178 -609 43\r\n'
p607
aS'-316 -126 35 |-158 -582 48\r\n'
p608
aS'-300 -142 45 |-175 -627 48\r\n'
p609
aS'-318 -118 54 |-158 -600 63\r\n'
p610
aS'-332 -119 30 |-139 -609 46\r\n'
p611
aS'-326 -118 51 |-174 -596 56\r\n'
p612
aS'-324 -110 39 |-161 -637 44\r\n'
p613
aS'-314 -125 66 |-164 -582 42\r\n'
p614
aS'-318 -126 50 |-193 -599 47\r\n'
p615
aS'-328 -133 66 |-177 -616 25\r\n'
p616
aS'-333 -109 59 |-183 -617 50\r\n'
p617
aS'-308 -142 70 |-168 -598 56\r\n'
p618
aS'-320 -116 42 |-179 -615 67\r\n'
p619
aS'-310 -141 28 |-207 -605 47\r\n'
p620
aS'-327 -119 50 |-188 -579 48\r\n'
p621
aS'-330 -135 60 |-167 -612 43\r\n'
p622
aS'-343 -126 37 |-165 -605 32\r\n'
p623
aS'-317 -105 47 |-180 -613 65\r\n'
p624
aS'-332 -118 29 |-185 -609 53\r\n'
p625
aS'-326 -122 63 |-158 -620 50\r\n'
p626
aS'-333 -115 56 |-174 -581 37\r\n'
p627
aS'-315 -124 41 |-185 -622 50\r\n'
p628
aS'-312 -120 41 |-201 -588 53\r\n'
p629
aS'-324 -121 33 |-195 -594 41\r\n'
p630
aS'-302 -125 35 |-176 -586 49\r\n'
p631
aS'-336 -126 72 |-161 -632 44\r\n'
p632
aS'-322 -129 17 |-199 -578 77\r\n'
p633
aS'-319 -153 77 |-153 -627 24\r\n'
p634
aS'-311 -119 42 |-134 -610 66\r\n'
p635
aS'-325 -116 14 |-182 -597 61\r\n'
p636
aS'-310 -122 32 |-212 -572 46\r\n'
p637
aS'-319 -120 68 |-154 -617 52\r\n'
p638
aS'-322 -130 76 |-162 -593 62\r\n'
p639
aS'-323 -113 78 |-206 -596 42\r\n'
p640
aS'-320 -130 50 |-175 -596 33\r\n'
p641
aS'-322 -116 55 |-139 -615 57\r\n'
p642
aS'-340 -113 64 |-169 -597 53\r\n'
p643
aS'-338 -135 50 |-166 -632 51\r\n'
p644
aS'-335 -135 35 |-184 -588 51\r\n'
p645
aS'-323 -120 19 |-167 -599 34\r\n'
p646
aS'-315 -135 76 |-174 -599 24\r\n'
p647
aS'-310 -123 64 |-164 -629 31\r\n'
p648
aS'-318 -117 35 |-166 -590 40\r\n'
p649
aS'-309 -138 28 |-172 -605 39\r\n'
p650
aS'-346 -127 35 |-152 -640 36\r\n'
p651
aS'-312 -136 18 |-199 -557 24\r\n'
p652
aS'-334 -111 40 |-147 -592 35\r\n'
p653
aS'-324 -89 82 |-175 -614 85\r\n'
p654
aS'-301 -142 80 |-183 -597 60\r\n'
p655
aS'-322 -106 42 |-188 -603 20\r\n'
p656
aS'-291 -109 22 |-151 -612 60\r\n'
p657
aS'-314 -113 77 |-180 -598 26\r\n'
p658
aS'-306 -112 67 |-188 -613 30\r\n'
p659
aS'-320 -124 53 |-154 -620 31\r\n'
p660
aS'-312 -119 31 |-187 -599 44\r\n'
p661
aS'-332 -128 92 |-202 -594 44\r\n'
p662
aS'-310 -127 36 |-171 -586 40\r\n'
p663
aS'-323 -133 56 |-179 -593 18\r\n'
p664
aS'-318 -132 41 |-179 -589 40\r\n'
p665
aS'-329 -122 59 |-152 -602 43\r\n'
p666
aS'-302 -113 56 |-194 -611 47\r\n'
p667
aS'-321 -100 37 |-181 -581 21\r\n'
p668
aS'-318 -131 33 |-152 -584 47\r\n'
p669
aS'-328 -124 71 |-196 -558 42\r\n'
p670
aS'-302 -118 51 |-170 -589 44\r\n'
p671
aS'-332 -115 82 |-149 -591 46\r\n'
p672
aS'-312 -135 71 |-191 -598 67\r\n'
p673
aS'-311 -121 67 |-181 -623 52\r\n'
p674
aS'-316 -129 81 |-178 -608 42\r\n'
p675
aS'-310 -128 55 |-171 -596 11\r\n'
p676
aS'-317 -130 49 |-158 -603 46\r\n'
p677
aS'-331 -121 72 |-167 -645 59\r\n'
p678
aS'-325 -104 59 |-177 -610 58\r\n'
p679
aS'-318 -112 30 |-165 -601 31\r\n'
p680
aS'-319 -109 59 |-186 -613 38\r\n'
p681
aS'-305 -107 67 |-203 -588 34\r\n'
p682
aS'-330 -133 77 |-154 -626 61\r\n'
p683
aS'-316 -134 62 |-163 -592 56\r\n'
p684
aS'-328 -134 53 |-185 -623 33\r\n'
p685
aS'-311 -129 68 |-179 -636 46\r\n'
p686
aS'-321 -135 66 |-168 -584 58\r\n'
p687
aS'-329 -128 34 |-166 -583 44\r\n'
p688
aS'-332 -112 56 |-175 -630 81\r\n'
p689
aS'-331 -124 55 |-171 -622 61\r\n'
p690
aS'-307 -99 101 |-189 -582 22\r\n'
p691
aS'-296 -129 51 |-180 -609 59\r\n'
p692
aS'-339 -138 37 |-151 -620 57\r\n'
p693
aS'-331 -123 81 |-146 -597 74\r\n'
p694
aS'-321 -141 70 |-176 -602 41\r\n'
p695
aS'-314 -110 78 |-192 -609 25\r\n'
p696
aS'-293 -137 44 |-195 -609 59\r\n'
p697
aS'-318 -147 67 |-171 -618 38\r\n'
p698
aS'-324 -115 18 |-187 -600 47\r\n'
p699
aS'-331 -130 41 |-185 -614 42\r\n'
p700
aS'-317 -133 57 |-187 -591 36\r\n'
p701
aS'-310 -147 30 |-169 -615 57\r\n'
p702
aS'-310 -108 55 |-167 -616 50\r\n'
p703
aS'-343 -110 56 |-154 -592 29\r\n'
p704
aS'-310 -139 58 |-201 -590 37\r\n'
p705
aS'-321 -119 44 |-197 -614 55\r\n'
p706
aS'-344 -124 44 |-177 -582 58\r\n'
p707
aS'-328 -129 53 |-165 -588 63\r\n'
p708
aS'-323 -137 73 |-172 -594 32\r\n'
p709
aS'-305 -121 50 |-177 -573 46\r\n'
p710
aS'-317 -124 60 |-192 -583 41\r\n'
p711
aS'-317 -124 51 |-185 -627 62\r\n'
p712
aS'-317 -107 37 |-190 -608 52\r\n'
p713
aS'-309 -119 19 |-195 -580 42\r\n'
p714
aS'-330 -132 84 |-193 -640 44\r\n'
p715
aS'-300 -121 72 |-194 -589 66\r\n'
p716
aS'-303 -128 36 |-185 -581 46\r\n'
p717
aS'-331 -115 37 |-172 -601 41\r\n'
p718
aS'-326 -112 72 |-195 -597 44\r\n'
p719
aS'-319 -112 48 |-178 -608 63\r\n'
p720
aS'-304 -116 49 |-202 -583 42\r\n'
p721
aS'-319 -124 34 |-203 -627 35\r\n'
p722
aS'-331 -117 40 |-148 -602 53\r\n'
p723
aS'-321 -132 58 |-181 -606 59\r\n'
p724
aS'-317 -125 68 |-169 -617 32\r\n'
p725
aS'-308 -117 51 |-186 -597 70\r\n'
p726
aS'-313 -107 51 |-161 -590 24\r\n'
p727
aS'-320 -148 43 |-182 -617 62\r\n'
p728
aS'-311 -123 47 |-185 -622 40\r\n'
p729
aS'-293 -105 46 |-155 -612 49\r\n'
p730
aS'-318 -114 35 |-178 -627 48\r\n'
p731
aS'-351 -126 27 |-188 -590 58\r\n'
p732
aS'-312 -129 39 |-179 -596 30\r\n'
p733
aS'-337 -135 58 |-143 -625 52\r\n'
p734
aS'-319 -123 75 |-188 -577 53\r\n'
p735
aS'-323 -109 52 |-170 -628 73\r\n'
p736
aS'-310 -118 27 |-167 -614 57\r\n'
p737
aS'-328 -108 49 |-181 -618 40\r\n'
p738
aS'-306 -105 38 |-183 -617 51\r\n'
p739
aS'-322 -105 52 |-179 -626 41\r\n'
p740
aS'-333 -103 50 |-179 -590 39\r\n'
p741
aS'-329 -127 73 |-168 -584 49\r\n'
p742
aS'-321 -106 64 |-177 -605 65\r\n'
p743
aS'-322 -122 33 |-186 -624 29\r\n'
p744
aS'-306 -121 67 |-187 -588 50\r\n'
p745
aS'-329 -122 74 |-171 -597 53\r\n'
p746
aS'-297 -129 72 |-199 -584 61\r\n'
p747
aS'-322 -113 50 |-165 -598 53\r\n'
p748
aS'-318 -124 36 |-202 -602 33\r\n'
p749
aS'-313 -126 49 |-176 -609 54\r\n'
p750
aS'-306 -106 58 |-153 -605 46\r\n'
p751
aS'-305 -114 15 |-252 -555 47\r\n'
p752
aS'-346 -123 56 |-137 -665 25\r\n'
p753
aS'-289 -93 41 |-141 -533 18\r\n'
p754
aS'-350 -124 127 |-167 -632 21\r\n'
p755
aS'-329 -124 71 |-181 -557 12\r\n'
p756
aS'-305 -70 -8 |-122 -597 44\r\n'
p757
aS'-308 -108 22 |-224 -571 74\r\n'
p758
aS'-342 -129 18 |-205 -590 97\r\n'
p759
aS'-305 -113 28 |-186 -584 10\r\n'
p760
aS'-323 -147 51 |-132 -620 79\r\n'
p761
aS'-349 -183 82 |-230 -662 102\r\n'
p762
aS'-273 -145 25 |-225 -626 15\r\n'
p763
aS'-305 -141 66 |-148 -623 43\r\n'
p764
aS'-334 -117 79 |-195 -551 -13\r\n'
p765
aS'-337 -78 79 |-148 -598 49\r\n'
p766
aS'-305 -114 21 |-181 -605 18\r\n'
p767
aS'-371 -121 31 |-204 -652 98\r\n'
p768
aS'-341 -92 22 |-159 -603 21\r\n'
p769
aS'-303 -78 41 |-140 -636 53\r\n'
p770
aS'-313 -138 63 |-164 -595 12\r\n'
p771
aS'-336 -153 73 |-190 -559 34\r\n'
p772
aS'-291 -140 55 |-162 -630 61\r\n'
p773
aS'-342 -132 66 |-231 -612 84\r\n'
p774
aS'-334 -123 56 |-178 -642 28\r\n'
p775
aS'-317 -113 30 |-139 -636 76\r\n'
p776
aS'-314 -114 36 |-181 -538 31\r\n'
p777
aS'-326 -130 59 |-170 -567 14\r\n'
p778
aS'-307 -110 66 |-180 -604 59\r\n'
p779
aS'-303 -123 63 |-177 -638 58\r\n'
p780
aS'-343 -123 69 |-188 -588 26\r\n'
p781
aS'-324 -122 68 |-163 -583 45\r\n'
p782
aS'-307 -134 44 |-181 -576 27\r\n'
p783
aS'-325 -145 51 |-192 -559 37\r\n'
p784
aS'-315 -127 42 |-180 -629 54\r\n'
p785
aS'-320 -123 41 |-168 -642 43\r\n'
p786
aS'-328 -98 65 |-168 -651 45\r\n'
p787
aS'-318 -105 6 |-202 -596 67\r\n'
p788
aS'-313 -111 32 |-219 -605 36\r\n'
p789
aS'-300 -135 73 |-192 -602 30\r\n'
p790
aS'-308 -134 66 |-160 -615 42\r\n'
p791
aS'-305 -120 57 |-174 -613 45\r\n'
p792
aS'-323 -127 57 |-183 -583 48\r\n'
p793
aS'-319 -144 52 |-156 -617 50\r\n'
p794
aS'-310 -115 52 |-156 -599 23\r\n'
p795
aS'-320 -104 62 |-191 -591 49\r\n'
p796
aS'-327 -112 81 |-197 -617 32\r\n'
p797
aS'-313 -111 44 |-214 -592 50\r\n'
p798
aS'-326 -135 51 |-192 -616 40\r\n'
p799
aS'-332 -121 32 |-153 -609 52\r\n'
p800
aS'-337 -116 42 |-177 -605 56\r\n'
p801
aS'-297 -117 81 |-195 -601 57\r\n'
p802
aS'-316 -137 79 |-172 -620 59\r\n'
p803
aS'-290 -140 68 |-168 -597 24\r\n'
p804
aS'-303 -141 46 |-187 -599 32\r\n'
p805
aS'-338 -130 59 |-160 -614 59\r\n'
p806
aS'-292 -111 74 |-181 -581 25\r\n'
p807
aS'-304 -126 29 |-194 -589 38\r\n'
p808
aS'-325 -112 21 |-202 -595 38\r\n'
p809
aS'-322 -105 50 |-159 -591 36\r\n'
p810
aS'-320 -130 56 |-174 -632 28\r\n'
p811
aS'-316 -124 62 |-159 -602 32\r\n'
p812
aS'-317 -129 60 |-170 -595 31\r\n'
p813
aS'-321 -124 17 |-179 -628 51\r\n'
p814
aS'-321 -120 64 |-189 -632 68\r\n'
p815
aS'-320 -141 67 |-160 -632 65\r\n'
p816
aS'-318 -145 48 |-182 -615 50\r\n'
p817
aS'-318 -143 65 |-179 -625 52\r\n'
p818
aS'-308 -122 59 |-205 -585 49\r\n'
p819
aS'-310 -133 54 |-188 -638 31\r\n'
p820
aS'-306 -128 45 |-157 -617 52\r\n'
p821
aS'-336 -106 55 |-161 -615 65\r\n'
p822
aS'-328 -118 43 |-183 -593 44\r\n'
p823
aS'-309 -116 37 |-193 -610 38\r\n'
p824
aS'-316 -121 42 |-157 -593 59\r\n'
p825
aS'-311 -123 68 |-188 -575 67\r\n'
p826
aS'-308 -130 68 |-194 -588 46\r\n'
p827
aS'-318 -116 72 |-166 -579 73\r\n'
p828
aS'-308 -119 70 |-176 -611 50\r\n'
p829
aS'-312 -119 33 |-189 -590 54\r\n'
p830
aS'-306 -136 26 |-185 -615 39\r\n'
p831
aS'-345 -110 58 |-186 -578 41\r\n'
p832
aS'-314 -112 55 |-189 -593 33\r\n'
p833
aS'-319 -128 60 |-174 -614 22\r\n'
p834
aS'-344 -123 52 |-154 -580 24\r\n'
p835
aS'-327 -138 50 |-190 -630 48\r\n'
p836
aS'-327 -102 64 |-159 -603 49\r\n'
p837
aS'-313 -127 60 |-177 -608 50\r\n'
p838
aS'-313 -115 46 |-180 -603 49\r\n'
p839
aS'-333 -119 19 |-157 -603 28\r\n'
p840
aS'-333 -117 68 |-159 -588 21\r\n'
p841
aS'-303 -118 40 |-174 -622 55\r\n'
p842
aS'-317 -130 20 |-190 -611 47\r\n'
p843
aS'-320 -131 51 |-192 -583 52\r\n'
p844
aS'-319 -119 48 |-177 -591 76\r\n'
p845
aS'-308 -129 72 |-167 -612 45\r\n'
p846
aS'-317 -124 61 |-185 -609 32\r\n'
p847
aS'-291 -128 49 |-173 -590 59\r\n'
p848
aS'-318 -112 9 |-191 -619 54\r\n'
p849
aS'-304 -125 65 |-173 -613 39\r\n'
p850
aS'-307 -97 50 |-171 -593 53\r\n'
p851
aS'-306 -115 44 |-179 -595 43\r\n'
p852
aS'-303 -112 34 |-211 -581 36\r\n'
p853
aS'-318 -120 60 |-166 -615 59\r\n'
p854
aS'-303 -122 34 |-178 -617 57\r\n'
p855
aS'-288 -119 65 |-183 -630 57\r\n'
p856
aS'-335 -135 73 |-170 -580 76\r\n'
p857
aS'-310 -111 45 |-203 -579 33\r\n'
p858
aS'-323 -128 45 |-193 -598 58\r\n'
p859
aS'-298 -125 70 |-189 -598 31\r\n'
p860
aS'-338 -132 45 |-173 -621 12\r\n'
p861
aS'-311 -113 31 |-172 -622 66\r\n'
p862
aS'-344 -127 15 |-189 -610 51\r\n'
p863
aS'-336 -116 41 |-171 -614 37\r\n'
p864
aS'-326 -118 63 |-177 -575 45\r\n'
p865
aS'-328 -116 77 |-186 -600 41\r\n'
p866
aS'-314 -135 82 |-191 -603 73\r\n'
p867
aS'-322 -134 88 |-174 -605 51\r\n'
p868
aS'-314 -125 64 |-198 -597 43\r\n'
p869
aS'-326 -127 66 |-171 -613 66\r\n'
p870
aS'-309 -130 23 |-163 -633 42\r\n'
p871
aS'-299 -114 60 |-177 -588 42\r\n'
p872
aS'-307 -135 43 |-178 -627 45\r\n'
p873
aS'-320 -122 57 |-185 -605 34\r\n'
p874
aS'-298 -114 96 |-175 -613 31\r\n'
p875
aS'-316 -116 45 |-185 -605 51\r\n'
p876
aS'-339 -122 76 |-185 -621 66\r\n'
p877
aS'-329 -140 44 |-161 -589 19\r\n'
p878
aS'-336 -137 57 |-168 -593 66\r\n'
p879
aS'-320 -135 74 |-159 -619 57\r\n'
p880
aS'-310 -121 41 |-182 -605 34\r\n'
p881
aS'-332 -109 75 |-171 -598 24\r\n'
p882
aS'-341 -140 36 |-192 -610 33\r\n'
p883
aS'-329 -119 46 |-184 -605 51\r\n'
p884
aS'-298 -126 30 |-165 -605 62\r\n'
p885
aS'-306 -121 60 |-181 -565 46\r\n'
p886
aS'-330 -111 33 |-175 -614 57\r\n'
p887
aS'-320 -121 77 |-203 -601 48\r\n'
p888
aS'-314 -118 22 |-194 -612 42\r\n'
p889
aS'-309 -124 55 |-183 -603 58\r\n'
p890
aS'-336 -132 63 |-169 -613 42\r\n'
p891
aS'-333 -137 72 |-162 -610 69\r\n'
p892
aS'-297 -127 84 |-157 -580 42\r\n'
p893
aS'-346 -123 78 |-184 -599 26\r\n'
p894
aS'-306 -117 42 |-186 -592 19\r\n'
p895
aS'-309 -135 38 |-166 -620 64\r\n'
p896
aS'-314 -119 61 |-161 -620 33\r\n'
p897
aS'-315 -130 52 |-190 -607 44\r\n'
p898
aS'-324 -129 59 |-190 -576 42\r\n'
p899
aS'-300 -126 72 |-160 -627 44\r\n'
p900
aS'-341 -122 57 |-173 -604 43\r\n'
p901
aS'-322 -125 83 |-170 -591 61\r\n'
p902
aS'-342 -118 34 |-142 -605 32\r\n'
p903
aS'-316 -107 81 |-179 -576 31\r\n'
p904
aS'-308 -111 76 |-175 -569 50\r\n'
p905
aS'-328 -119 47 |-172 -602 27\r\n'
p906
aS'-317 -119 70 |-176 -594 38\r\n'
p907
aS'-323 -128 47 |-195 -600 41\r\n'
p908
aS'-306 -133 53 |-167 -611 53\r\n'
p909
aS'-324 -116 39 |-159 -625 49\r\n'
p910
aS'-319 -129 63 |-209 -582 60\r\n'
p911
aS'-309 -112 50 |-187 -609 52\r\n'
p912
aS'-318 -116 41 |-163 -577 39\r\n'
p913
aS'-312 -115 60 |-180 -599 51\r\n'
p914
aS'-313 -122 26 |-167 -611 52\r\n'
p915
aS'-324 -115 70 |-172 -624 40\r\n'
p916
aS'-329 -126 35 |-186 -606 33\r\n'
p917
aS'-329 -118 42 |-163 -576 40\r\n'
p918
aS'-318 -122 46 |-155 -609 53\r\n'
p919
aS'-330 -126 42 |-188 -598 44\r\n'
p920
aS'-314 -142 64 |-174 -596 34\r\n'
p921
aS'-328 -109 32 |-174 -612 58\r\n'
p922
aS'-332 -113 62 |-172 -610 31\r\n'
p923
aS'-332 -121 22 |-176 -574 58\r\n'
p924
aS'-320 -122 37 |-184 -605 48\r\n'
p925
aS'-342 -129 81 |-155 -601 40\r\n'
p926
aS'-304 -115 66 |-167 -616 38\r\n'
p927
aS'-330 -132 44 |-182 -609 30\r\n'
p928
aS'-327 -130 46 |-180 -599 64\r\n'
p929
aS'-338 -121 33 |-176 -617 47\r\n'
p930
aS'-326 -131 65 |-180 -595 20\r\n'
p931
aS'-318 -104 34 |-169 -593 55\r\n'
p932
aS'-304 -130 48 |-149 -581 31\r\n'
p933
aS'-322 -135 52 |-190 -579 28\r\n'
p934
aS'-308 -109 22 |-161 -594 48\r\n'
p935
aS'-312 -133 65 |-177 -614 52\r\n'
p936
aS'-338 -122 45 |-174 -603 44\r\n'
p937
aS'-325 -120 54 |-172 -615 27\r\n'
p938
aS'-328 -111 36 |-194 -595 42\r\n'
p939
aS'-302 -118 52 |-167 -607 32\r\n'
p940
aS'-317 -134 58 |-170 -610 53\r\n'
p941
aS'-317 -145 48 |-164 -613 53\r\n'
p942
aS'-322 -142 57 |-199 -632 69\r\n'
p943
aS'-313 -118 79 |-197 -597 32\r\n'
p944
aS'-313 -135 44 |-159 -614 45\r\n'
p945
aS'-321 -119 48 |-171 -604 45\r\n'
p946
aS'-323 -127 80 |-172 -595 26\r\n'
p947
aS'-324 -120 46 |-163 -596 19\r\n'
p948
aS'-336 -97 54 |-154 -605 49\r\n'
p949
aS'-318 -112 18 |-175 -605 50\r\n'
p950
aS'-307 -120 79 |-177 -597 32\r\n'
p951
aS'-334 -126 67 |-190 -580 47\r\n'
p952
aS'-316 -116 63 |-189 -596 44\r\n'
p953
aS'-323 -118 51 |-157 -613 38\r\n'
p954
aS'-317 -108 60 |-191 -586 32\r\n'
p955
aS'-321 -122 55 |-186 -623 32\r\n'
p956
aS'-327 -146 37 |-188 -569 45\r\n'
p957
aS'-318 -127 47 |-189 -607 51\r\n'
p958
aS'-316 -115 55 |-182 -595 53\r\n'
p959
aS'-329 -128 76 |-182 -606 50\r\n'
p960
aS'-327 -137 39 |-161 -586 45\r\n'
p961
aS'-306 -137 38 |-180 -616 36\r\n'
p962
aS'-324 -132 57 |-179 -606 34\r\n'
p963
aS'-322 -126 48 |-173 -617 36\r\n'
p964
aS'-308 -109 63 |-177 -607 64\r\n'
p965
aS'-325 -130 17 |-196 -597 54\r\n'
p966
aS'-309 -124 29 |-149 -596 40\r\n'
p967
aS'-323 -131 52 |-160 -607 68\r\n'
p968
aS'-321 -127 55 |-187 -610 56\r\n'
p969
aS'-295 -142 43 |-170 -618 45\r\n'
p970
aS'-309 -124 51 |-191 -598 59\r\n'
p971
aS'-311 -136 60 |-180 -592 42\r\n'
p972
aS'-338 -131 73 |-177 -608 30\r\n'
p973
aS'-316 -130 22 |-191 -605 32\r\n'
p974
aS'-309 -132 49 |-183 -623 34\r\n'
p975
aS'-331 -129 70 |-197 -641 56\r\n'
p976
aS'-329 -119 59 |-162 -589 52\r\n'
p977
aS'-355 -114 52 |-170 -601 45\r\n'
p978
aS'-334 -119 60 |-182 -605 34\r\n'
p979
aS'-298 -121 61 |-178 -573 33\r\n'
p980
aS'-322 -124 39 |-182 -581 44\r\n'
p981
aS'-334 -112 64 |-198 -595 42\r\n'
p982
aS'-323 -112 63 |-194 -651 49\r\n'
p983
aS'-315 -120 37 |-192 -623 51\r\n'
p984
aS'-333 -143 28 |-183 -639 35\r\n'
p985
aS'-308 -121 47 |-167 -597 61\r\n'
p986
aS'-322 -133 49 |-186 -585 33\r\n'
p987
aS'-328 -128 52 |-189 -579 38\r\n'
p988
aS'-304 -127 46 |-169 -605 44\r\n'
p989
aS'-326 -116 28 |-171 -591 32\r\n'
p990
aS'-331 -132 39 |-204 -589 81\r\n'
p991
aS'-337 -121 33 |-185 -608 50\r\n'
p992
aS'-313 -126 53 |-136 -577 56\r\n'
p993
aS'-308 -123 77 |-165 -574 43\r\n'
p994
aS'-330 -122 62 |-172 -565 46\r\n'
p995
aS'-298 -130 76 |-144 -598 58\r\n'
p996
aS'-324 -108 69 |-165 -598 28\r\n'
p997
aS'-332 -132 52 |-195 -611 61\r\n'
p998
aS'-303 -117 38 |-175 -623 24\r\n'
p999
aS'-330 -132 81 |-165 -612 28\r\n'
p1000
aS'-327 -139 56 |-192 -626 37\r\n'
p1001
aS'-341 -134 65 |-191 -612 60\r\n'
p1002
aS'-328 -136 53 |-195 -619 52\r\n'
p1003
aS'-321 -122 36 |-148 -608 40\r\n'
p1004
aS'-341 -154 50 |-199 -608 46\r\n'
p1005
aS'-301 -131 55 |-165 -598 37\r\n'
p1006
aS'-322 -121 81 |-155 -609 40\r\n'
p1007
aS'-324 -106 48 |-190 -641 14\r\n'
p1008
aS'-325 -124 9 |-181 -587 57\r\n'
p1009
aS'-345 -125 74 |-185 -617 36\r\n'
p1010
aS'-338 -134 58 |-151 -602 25\r\n'
p1011
aS'-301 -114 60 |-180 -616 56\r\n'
p1012
aS'-338 -129 48 |-166 -606 49\r\n'
p1013
aS'-325 -145 47 |-198 -630 45\r\n'
p1014
aS'-340 -123 55 |-175 -613 36\r\n'
p1015
aS'-317 -121 55 |-185 -611 44\r\n'
p1016
aS'-334 -131 46 |-191 -590 31\r\n'
p1017
aS'-321 -129 26 |-161 -625 32\r\n'
p1018
aS'-296 -130 52 |-196 -602 43\r\n'
p1019
aS'-334 -109 36 |-188 -588 22\r\n'
p1020
aS'-337 -134 71 |-189 -608 59\r\n'
p1021
aS'-338 -107 56 |-183 -593 40\r\n'
p1022
aS'-313 -98 74 |-173 -614 61\r\n'
p1023
aS'-332 -126 61 |-178 -630 43\r\n'
p1024
aS'-304 -104 39 |-187 -617 42\r\n'
p1025
aS'-333 -121 55 |-186 -596 51\r\n'
p1026
aS'-308 -116 57 |-189 -583 32\r\n'
p1027
aS'-351 -135 38 |-186 -617 63\r\n'
p1028
aS'-323 -111 44 |-175 -586 59\r\n'
p1029
aS'-328 -113 63 |-198 -620 33\r\n'
p1030
aS'-312 -138 19 |-179 -578 30\r\n'
p1031
aS'-320 -121 51 |-162 -606 47\r\n'
p1032
aS'-310 -109 58 |-157 -624 60\r\n'
p1033
aS'-307 -128 71 |-182 -573 28\r\n'
p1034
aS'-308 -119 46 |-169 -610 28\r\n'
p1035
aS'-324 -116 73 |-184 -619 60\r\n'
p1036
aS'-342 -121 64 |-168 -600 43\r\n'
p1037
aS'-313 -120 60 |-182 -599 43\r\n'
p1038
aS'-308 -127 43 |-173 -598 48\r\n'
p1039
aS'-316 -110 53 |-177 -608 43\r\n'
p1040
aS'-318 -104 29 |-176 -612 34\r\n'
p1041
aS'-305 -115 49 |-158 -599 54\r\n'
p1042
aS'-324 -129 64 |-168 -588 42\r\n'
p1043
aS'-305 -131 41 |-186 -630 33\r\n'
p1044
aS'-349 -127 56 |-190 -591 46\r\n'
p1045
aS'-329 -136 60 |-163 -592 42\r\n'
p1046
aS'-316 -128 27 |-191 -587 50\r\n'
p1047
aS'-319 -115 22 |-160 -610 43\r\n'
p1048
aS'-323 -130 30 |-188 -607 47\r\n'
p1049
aS'-318 -123 85 |-187 -596 19\r\n'
p1050
aS'-324 -126 69 |-175 -577 40\r\n'
p1051
aS'-310 -119 38 |-164 -568 18\r\n'
p1052
aS'-322 -124 20 |-175 -613 34\r\n'
p1053
aS'-318 -123 20 |-177 -590 50\r\n'
p1054
aS'-332 -124 45 |-167 -608 40\r\n'
p1055
aS'-329 -138 58 |-172 -609 35\r\n'
p1056
aS'-331 -135 38 |-175 -617 49\r\n'
p1057
aS'-319 -119 43 |-181 -603 39\r\n'
p1058
aS'-321 -133 36 |-175 -596 53\r\n'
p1059
aS'-326 -121 65 |-177 -614 21\r\n'
p1060
aS'-315 -124 49 |-178 -613 61\r\n'
p1061
aS'-326 -113 51 |-181 -606 59\r\n'
p1062
aS'-324 -114 66 |-158 -592 47\r\n'
p1063
aS'-329 -124 58 |-182 -606 24\r\n'
p1064
aS'-335 -107 51 |-183 -617 52\r\n'
p1065
aS'-325 -128 53 |-162 -609 41\r\n'
p1066
aS'-327 -107 63 |-193 -588 69\r\n'
p1067
aS'-340 -106 65 |-185 -616 25\r\n'
p1068
aS'-310 -112 44 |-179 -598 43\r\n'
p1069
aS'-317 -127 40 |-180 -650 43\r\n'
p1070
aS'-315 -119 19 |-172 -594 56\r\n'
p1071
aS'-321 -129 57 |-170 -623 43\r\n'
p1072
aS'-303 -132 57 |-193 -611 74\r\n'
p1073
aS'-309 -118 54 |-182 -571 53\r\n'
p1074
aS'-315 -117 44 |-195 -608 58\r\n'
p1075
aS'-322 -131 39 |-182 -586 56\r\n'
p1076
aS'-315 -143 57 |-156 -610 39\r\n'
p1077
aS'-315 -111 52 |-175 -574 60\r\n'
p1078
aS'-321 -126 60 |-183 -620 74\r\n'
p1079
aS'-317 -133 40 |-164 -562 49\r\n'
p1080
aS'-333 -120 61 |-186 -607 37\r\n'
p1081
aS'-300 -123 52 |-181 -600 37\r\n'
p1082
aS'-319 -138 56 |-190 -585 43\r\n'
p1083
aS'-317 -98 62 |-167 -594 46\r\n'
p1084
aS'-319 -120 26 |-187 -610 56\r\n'
p1085
aS'-316 -111 47 |-189 -645 50\r\n'
p1086
aS'-320 -118 69 |-187 -602 38\r\n'
p1087
aS'-304 -131 72 |-192 -595 34\r\n'
p1088
aS'-309 -126 26 |-171 -618 48\r\n'
p1089
aS'-310 -137 60 |-194 -606 47\r\n'
p1090
aS'-323 -124 79 |-188 -598 60\r\n'
p1091
aS'-300 -118 70 |-185 -587 67\r\n'
p1092
aS'-337 -119 73 |-189 -623 47\r\n'
p1093
aS'-307 -109 64 |-185 -602 29\r\n'
p1094
aS'-324 -128 76 |-163 -596 53\r\n'
p1095
aS'-328 -124 49 |-168 -611 69\r\n'
p1096
aS'-336 -110 49 |-196 -584 41\r\n'
p1097
aS'-312 -115 49 |-185 -602 51\r\n'
p1098
aS'-346 -115 36 |-170 -600 43\r\n'
p1099
aS'-318 -126 26 |-171 -610 29\r\n'
p1100
aS'-314 -110 49 |-183 -608 66\r\n'
p1101
aS'-315 -131 77 |-186 -613 31\r\n'
p1102
aS'-327 -151 61 |-152 -592 55\r\n'
p1103
aS'-320 -126 59 |-195 -603 14\r\n'
p1104
aS'-317 -127 54 |-157 -622 59\r\n'
p1105
aS'-322 -136 52 |-171 -594 70\r\n'
p1106
aS'-322 -119 36 |-190 -610 17\r\n'
p1107
aS'-329 -116 33 |-198 -600 40\r\n'
p1108
aS'-336 -121 44 |-168 -619 50\r\n'
p1109
aS'-328 -122 23 |-212 -585 38\r\n'
p1110
aS'-342 -125 27 |-185 -590 43\r\n'
p1111
aS'-329 -111 48 |-209 -578 46\r\n'
p1112
aS'-314 -143 36 |-202 -600 42\r\n'
p1113
aS'-328 -133 45 |-164 -616 52\r\n'
p1114
aS'-335 -117 70 |-143 -589 45\r\n'
p1115
aS'-337 -127 47 |-191 -584 59\r\n'
p1116
aS'-318 -140 51 |-204 -593 55\r\n'
p1117
aS'-314 -131 66 |-183 -641 53\r\n'
p1118
aS'-311 -131 29 |-183 -623 57\r\n'
p1119
aS'-345 -113 48 |-186 -577 32\r\n'
p1120
aS'-325 -124 45 |-154 -594 31\r\n'
p1121
aS'-321 -135 23 |-195 -615 69\r\n'
p1122
aS'-332 -118 58 |-180 -618 31\r\n'
p1123
aS'-315 -131 67 |-162 -597 53\r\n'
p1124
aS'-339 -126 51 |-174 -616 34\r\n'
p1125
aS'-313 -123 73 |-186 -616 57\r\n'
p1126
aS'-319 -98 8 |-166 -603 40\r\n'
p1127
aS'-313 -129 32 |-173 -614 39\r\n'
p1128
aS'-312 -130 41 |-183 -613 47\r\n'
p1129
aS'-347 -136 69 |-163 -616 29\r\n'
p1130
aS'-325 -120 53 |-183 -625 58\r\n'
p1131
aS'-333 -128 81 |-193 -617 41\r\n'
p1132
aS'-321 -134 58 |-155 -632 34\r\n'
p1133
aS'-311 -128 59 |-188 -622 42\r\n'
p1134
aS'-327 -107 55 |-191 -619 32\r\n'
p1135
aS'-320 -118 79 |-194 -612 55\r\n'
p1136
aS'-310 -136 51 |-189 -588 38\r\n'
p1137
aS'-335 -133 27 |-178 -630 33\r\n'
p1138
aS'-327 -116 37 |-176 -607 34\r\n'
p1139
aS'-309 -122 57 |-180 -620 47\r\n'
p1140
aS'-315 -135 39 |-175 -608 47\r\n'
p1141
aS'-335 -116 67 |-171 -602 65\r\n'
p1142
aS'-311 -123 32 |-185 -620 52\r\n'
p1143
aS'-302 -132 52 |-152 -609 40\r\n'
p1144
aS'-315 -133 69 |-162 -626 64\r\n'
p1145
aS'-302 -122 53 |-178 -595 50\r\n'
p1146
aS'-314 -125 66 |-193 -600 51\r\n'
p1147
aS'-329 -127 35 |-185 -610 45\r\n'
p1148
aS'-324 -120 65 |-161 -607 47\r\n'
p1149
aS'-312 -114 51 |-194 -577 52\r\n'
p1150
aS'-327 -115 58 |-182 -595 51\r\n'
p1151
aS'-312 -114 34 |-201 -589 50\r\n'
p1152
aS'-326 -131 60 |-178 -614 26\r\n'
p1153
aS'-323 -126 46 |-194 -586 37\r\n'
p1154
aS'-314 -127 23 |-180 -609 28\r\n'
p1155
aS'-321 -114 32 |-152 -613 37\r\n'
p1156
aS'-329 -130 80 |-166 -590 57\r\n'
p1157
aS'-301 -133 59 |-187 -633 30\r\n'
p1158
aS'-326 -120 84 |-165 -615 40\r\n'
p1159
aS'-321 -116 40 |-166 -617 66\r\n'
p1160
aS'-318 -129 58 |-193 -594 43\r\n'
p1161
aS'-322 -125 59 |-196 -603 45\r\n'
p1162
aS'-328 -123 64 |-183 -607 27\r\n'
p1163
aS'-311 -120 75 |-175 -578 25\r\n'
p1164
aS'-324 -116 66 |-181 -609 51\r\n'
p1165
aS'-318 -123 45 |-180 -621 43\r\n'
p1166
aS'-334 -127 59 |-169 -611 37\r\n'
p1167
aS'-322 -106 23 |-187 -607 48\r\n'
p1168
aS'-322 -123 40 |-173 -582 53\r\n'
p1169
aS'-316 -119 64 |-178 -583 35\r\n'
p1170
aS'-334 -123 33 |-179 -619 54\r\n'
p1171
aS'-324 -123 55 |-168 -619 51\r\n'
p1172
aS'-327 -125 47 |-203 -608 32\r\n'
p1173
aS'-311 -129 36 |-191 -611 52\r\n'
p1174
aS'-328 -134 41 |-170 -630 56\r\n'
p1175
aS'-326 -111 51 |-180 -633 37\r\n'
p1176
aS'-326 -129 44 |-185 -607 43\r\n'
p1177
aS'-299 -140 69 |-190 -613 36\r\n'
p1178
aS'-300 -119 48 |-189 -618 45\r\n'
p1179
aS'-314 -109 42 |-193 -615 53\r\n'
p1180
aS'-335 -106 78 |-164 -613 69\r\n'
p1181
aS'-312 -112 61 |-210 -592 40\r\n'
p1182
a.